target datalayout = "e-m:e-p270:32:32-p271:32:32-p272:64:64-i64:64-i128:128-f80:128-n8:16:32:64-S128"
target triple = "x86_64-pc-linux-gnu"

%struct._zend_array = type { %struct._zend_refcounted_h, %union.anon.5, i32, %union.anon.7, i32, i32, i32, i32, i64, ptr }
%struct._zend_refcounted_h = type { i32, %union.anon.3 }
%union.anon.3 = type { i32 }
%union.anon.5 = type { i32 }
%union.anon.7 = type { ptr }
%struct._zend_class_entry = type { i8, ptr, %union.anon.4, i32, i32, i32, i32, ptr, ptr, ptr, %struct._zend_array, %struct._zend_array, %struct._zend_array, ptr, ptr, ptr, ptr, ptr, ptr, ptr, ptr, ptr, ptr, ptr, ptr, ptr, ptr, ptr, ptr, ptr, ptr, ptr, %union.anon.8, ptr, ptr, ptr, ptr, i32, i32, %union.anon.9, ptr, ptr, ptr, ptr, i32, ptr, ptr, %union.anon.10 }
%union.anon.4 = type { ptr }
%union.anon.8 = type { ptr }
%union.anon.9 = type { ptr }
%union.anon.10 = type { %struct.anon.11 }
%struct.anon.11 = type { ptr, i32, i32 }
%struct._zend_string = type { %struct._zend_refcounted_h, i64, i64, [1 x i8] }

@zend_ce_traversable = global ptr null, align 8
@zend_ce_aggregate = global ptr null, align 8
@zend_ce_iterator = global ptr null, align 8
@.str.10 = private unnamed_addr constant [61 x i8] c"%s %s must implement interface %s as part of either %s or %s\00", align 1

; Function Attrs: nounwind uwtable
define internal i32 @zend_implement_traversable(ptr noundef %0, ptr noundef %1) #0 {
  %3 = alloca ptr, align 8
  %4 = alloca i32, align 4
  %5 = alloca ptr, align 8
  %6 = alloca ptr, align 8
  %7 = alloca i32, align 4
  store ptr %0, ptr %5, align 8
  store ptr %1, ptr %6, align 8
  %8 = load ptr, ptr %6, align 8
  %9 = getelementptr inbounds %struct._zend_class_entry, ptr %8, i32 0, i32 4
  %10 = load i32, ptr %9, align 4
  %11 = and i32 %10, 64
  %12 = icmp ne i32 %11, 0
  br i1 %12, label %13, label %14

13:                                               ; preds = %2
  store i32 0, ptr %4, align 4
  br label %81

14:                                               ; preds = %2
  %15 = load ptr, ptr %6, align 8
  %16 = getelementptr inbounds %struct._zend_class_entry, ptr %15, i32 0, i32 37
  %17 = load i32, ptr %16, align 8
  %18 = icmp ne i32 %17, 0
  br i1 %18, label %19, label %57

19:                                               ; preds = %14
  %20 = load ptr, ptr %6, align 8
  %21 = getelementptr inbounds %struct._zend_class_entry, ptr %20, i32 0, i32 4
  %22 = load i32, ptr %21, align 4
  %23 = and i32 %22, 262144
  %24 = icmp ne i32 %23, 0
  call void @llvm.assume(i1 %24)
  store i32 0, ptr %7, align 4
  br label %25

25:                                               ; preds = %53, %19
  %26 = load i32, ptr %7, align 4
  %27 = load ptr, ptr %6, align 8
  %28 = getelementptr inbounds %struct._zend_class_entry, ptr %27, i32 0, i32 37
  %29 = load i32, ptr %28, align 8
  %30 = icmp ult i32 %26, %29
  br i1 %30, label %31, label %56

31:                                               ; preds = %25
  %32 = load ptr, ptr %6, align 8
  %33 = getelementptr inbounds %struct._zend_class_entry, ptr %32, i32 0, i32 39
  %34 = load ptr, ptr %33, align 8
  %35 = load i32, ptr %7, align 4
  %36 = zext i32 %35 to i64
  %37 = getelementptr inbounds ptr, ptr %34, i64 %36
  %38 = load ptr, ptr %37, align 8
  %39 = load ptr, ptr @zend_ce_aggregate, align 8
  %40 = icmp eq ptr %38, %39
  br i1 %40, label %51, label %41

41:                                               ; preds = %31
  %42 = load ptr, ptr %6, align 8
  %43 = getelementptr inbounds %struct._zend_class_entry, ptr %42, i32 0, i32 39
  %44 = load ptr, ptr %43, align 8
  %45 = load i32, ptr %7, align 4
  %46 = zext i32 %45 to i64
  %47 = getelementptr inbounds ptr, ptr %44, i64 %46
  %48 = load ptr, ptr %47, align 8
  %49 = load ptr, ptr @zend_ce_iterator, align 8
  %50 = icmp eq ptr %48, %49
  br i1 %50, label %51, label %52

51:                                               ; preds = %41, %31
  store i32 0, ptr %4, align 4
  br label %81

52:                                               ; preds = %41
  br label %53

53:                                               ; preds = %52
  %54 = load i32, ptr %7, align 4
  %55 = add i32 %54, 1
  store i32 %55, ptr %7, align 4
  br label %25

56:                                               ; preds = %25
  br label %57

57:                                               ; preds = %56, %14
  %58 = load ptr, ptr %6, align 8
  store ptr %58, ptr %3, align 8
  %59 = load ptr, ptr %3, align 8
  %60 = call ptr @zend_get_object_type_case(ptr noundef %59, i1 noundef zeroext true) #10
  %61 = load ptr, ptr %6, align 8
  %62 = getelementptr inbounds %struct._zend_class_entry, ptr %61, i32 0, i32 1
  %63 = load ptr, ptr %62, align 8
  %64 = getelementptr inbounds %struct._zend_string, ptr %63, i32 0, i32 3
  %65 = getelementptr inbounds [1 x i8], ptr %64, i64 0, i64 0
  %66 = load ptr, ptr @zend_ce_traversable, align 8
  %67 = getelementptr inbounds %struct._zend_class_entry, ptr %66, i32 0, i32 1
  %68 = load ptr, ptr %67, align 8
  %69 = getelementptr inbounds %struct._zend_string, ptr %68, i32 0, i32 3
  %70 = getelementptr inbounds [1 x i8], ptr %69, i64 0, i64 0
  %71 = load ptr, ptr @zend_ce_iterator, align 8
  %72 = getelementptr inbounds %struct._zend_class_entry, ptr %71, i32 0, i32 1
  %73 = load ptr, ptr %72, align 8
  %74 = getelementptr inbounds %struct._zend_string, ptr %73, i32 0, i32 3
  %75 = getelementptr inbounds [1 x i8], ptr %74, i64 0, i64 0
  %76 = load ptr, ptr @zend_ce_aggregate, align 8
  %77 = getelementptr inbounds %struct._zend_class_entry, ptr %76, i32 0, i32 1
  %78 = load ptr, ptr %77, align 8
  %79 = getelementptr inbounds %struct._zend_string, ptr %78, i32 0, i32 3
  %80 = getelementptr inbounds [1 x i8], ptr %79, i64 0, i64 0
  call void (i32, ptr, ...) @zend_error_noreturn(i32 noundef 16, ptr noundef @.str.10, ptr noundef %60, ptr noundef %65, ptr noundef %70, ptr noundef %75, ptr noundef %80) #9
  unreachable

81:                                               ; preds = %51, %13
  %82 = load i32, ptr %4, align 4
  ret i32 %82
}