; Function Attrs: nounwind uwtable
define internal noundef i32 @zend_implement_traversable(ptr nocapture readnone %0, ptr noundef %1) #0 {
  %3 = getelementptr inbounds i8, ptr %1, i64 28
  %4 = load i32, ptr %3, align 4
  %5 = and i32 %4, 64
  %.not = icmp eq i32 %5, 0
  br i1 %.not, label %6, label %.loopexit17

6:                                                ; preds = %2
  %7 = getelementptr inbounds i8, ptr %1, i64 424
  %8 = load i32, ptr %7, align 8
  %.not15 = icmp eq i32 %8, 0
  br i1 %.not15, label %.loopexit, label %9

9:                                                ; preds = %6
  %10 = and i32 %4, 262144
  %11 = icmp ne i32 %10, 0
  tail call void @llvm.assume(i1 %11)
  %12 = getelementptr inbounds i8, ptr %1, i64 432
  %13 = load ptr, ptr %12, align 8
  %14 = load ptr, ptr @zend_ce_aggregate, align 8
  %15 = load ptr, ptr @zend_ce_iterator, align 8
  %wide.trip.count = zext i32 %8 to i64
  br label %17

16:                                               ; preds = %17
  %indvars.iv.next = add nuw nsw i64 %indvars.iv, 1
  %exitcond.not = icmp eq i64 %indvars.iv.next, %wide.trip.count
  br i1 %exitcond.not, label %.loopexit, label %17

17:                                               ; preds = %9, %16
  %indvars.iv = phi i64 [ 0, %9 ], [ %indvars.iv.next, %16 ]
  %18 = getelementptr inbounds ptr, ptr %13, i64 %indvars.iv
  %19 = load ptr, ptr %18, align 8
  %20 = icmp eq ptr %19, %14
  %21 = icmp eq ptr %19, %15
  %or.cond = select i1 %20, i1 true, i1 %21
  br i1 %or.cond, label %.loopexit17, label %16

.loopexit:                                        ; preds = %16, %6
  %22 = tail call ptr @zend_get_object_type_case(ptr noundef nonnull %1, i1 noundef zeroext true) #9
  %23 = getelementptr inbounds i8, ptr %1, i64 8
  %24 = load ptr, ptr %23, align 8
  %25 = getelementptr inbounds i8, ptr %24, i64 24
  %26 = load ptr, ptr @zend_ce_traversable, align 8
  %27 = getelementptr inbounds i8, ptr %26, i64 8
  %28 = load ptr, ptr %27, align 8
  %29 = getelementptr inbounds i8, ptr %28, i64 24
  %30 = load ptr, ptr @zend_ce_iterator, align 8
  %31 = getelementptr inbounds i8, ptr %30, i64 8
  %32 = load ptr, ptr %31, align 8
  %33 = getelementptr inbounds i8, ptr %32, i64 24
  %34 = load ptr, ptr @zend_ce_aggregate, align 8
  %35 = getelementptr inbounds i8, ptr %34, i64 8
  %36 = load ptr, ptr %35, align 8
  %37 = getelementptr inbounds i8, ptr %36, i64 24
  tail call void (i32, ptr, ...) @zend_error_noreturn(i32 noundef 16, ptr noundef nonnull @.str.10, ptr noundef %22, ptr noundef nonnull %25, ptr noundef nonnull %29, ptr noundef nonnull %33, ptr noundef nonnull %37) #10
  unreachable

.loopexit17:                                      ; preds = %17, %2
  ret i32 0
}